target datalayout = "e-m:e-p270:32:32-p271:32:32-p272:64:64-i64:64-i128:128-f80:128-n8:16:32:64-S128"
target triple = "x86_64-pc-linux-gnu"

%struct.tvbuff = type { ptr, ptr, i8, i32, ptr, ptr, i32, i32, i32, i32 }

; Function Attrs: inlinehint nounwind null_pointer_is_valid sspstrong uwtable
define internal i32 @compute_offset(ptr noundef %0, i32 noundef %1, ptr noundef %2) #7 {
  %4 = alloca i32, align 4
  %5 = alloca ptr, align 8
  %6 = alloca i32, align 4
  %7 = alloca ptr, align 8
  %8 = alloca i32, align 4
  %9 = alloca i32, align 4
  %10 = alloca i32, align 4
  %11 = alloca i32, align 4
  store ptr %0, ptr %5, align 8
  store i32 %1, ptr %6, align 4
  store ptr %2, ptr %7, align 8
  %12 = load i32, ptr %6, align 4
  %13 = icmp sge i32 %12, 0
  br i1 %13, label %14, label %54

14:                                               ; preds = %3
  call void @llvm.lifetime.start.p0(i64 4, ptr %8) #16
  %15 = load i32, ptr %6, align 4
  %16 = load ptr, ptr %5, align 8
  %17 = getelementptr inbounds nuw %struct.tvbuff, ptr %16, i32 0, i32 6
  %18 = load i32, ptr %17, align 8
  %19 = icmp ule i32 %15, %18
  br i1 %19, label %20, label %21

20:                                               ; preds = %14
  store i32 1, ptr %8, align 4
  br label %22

21:                                               ; preds = %14
  store i32 0, ptr %8, align 4
  br label %22

22:                                               ; preds = %21, %20
  %23 = load i32, ptr %8, align 4
  store i32 %23, ptr %9, align 4
  call void @llvm.lifetime.end.p0(i64 4, ptr %8) #16
  %24 = load i32, ptr %9, align 4
  %25 = sext i32 %24 to i64
  %26 = call i64 @llvm.expect.i64(i64 %25, i64 1)
  %27 = icmp ne i64 %26, 0
  br i1 %27, label %28, label %31

28:                                               ; preds = %22
  %29 = load i32, ptr %6, align 4
  %30 = load ptr, ptr %7, align 8
  store i32 %29, ptr %30, align 4
  br label %53

31:                                               ; preds = %22
  %32 = load i32, ptr %6, align 4
  %33 = load ptr, ptr %5, align 8
  %34 = getelementptr inbounds nuw %struct.tvbuff, ptr %33, i32 0, i32 8
  %35 = load i32, ptr %34, align 8
  %36 = icmp ule i32 %32, %35
  br i1 %36, label %37, label %38

37:                                               ; preds = %31
  store i32 1, ptr %4, align 4
  br label %102

38:                                               ; preds = %31
  %39 = load ptr, ptr %5, align 8
  %40 = getelementptr inbounds nuw %struct.tvbuff, ptr %39, i32 0, i32 3
  %41 = load i32, ptr %40, align 4
  %42 = and i32 %41, 1
  %43 = icmp ne i32 %42, 0
  br i1 %43, label %44, label %45

44:                                               ; preds = %38
  store i32 4, ptr %4, align 4
  br label %102

45:                                               ; preds = %38
  %46 = load i32, ptr %6, align 4
  %47 = load ptr, ptr %5, align 8
  %48 = getelementptr inbounds nuw %struct.tvbuff, ptr %47, i32 0, i32 7
  %49 = load i32, ptr %48, align 4
  %50 = icmp ule i32 %46, %49
  br i1 %50, label %51, label %52

51:                                               ; preds = %45
  store i32 2, ptr %4, align 4
  br label %102

52:                                               ; preds = %45
  store i32 3, ptr %4, align 4
  br label %102

53:                                               ; preds = %28
  br label %101

54:                                               ; preds = %3
  call void @llvm.lifetime.start.p0(i64 4, ptr %10) #16
  %55 = load i32, ptr %6, align 4
  %56 = sub i32 0, %55
  %57 = load ptr, ptr %5, align 8
  %58 = getelementptr inbounds nuw %struct.tvbuff, ptr %57, i32 0, i32 6
  %59 = load i32, ptr %58, align 8
  %60 = icmp ule i32 %56, %59
  br i1 %60, label %61, label %62

61:                                               ; preds = %54
  store i32 1, ptr %10, align 4
  br label %63

62:                                               ; preds = %54
  store i32 0, ptr %10, align 4
  br label %63

63:                                               ; preds = %62, %61
  %64 = load i32, ptr %10, align 4
  store i32 %64, ptr %11, align 4
  call void @llvm.lifetime.end.p0(i64 4, ptr %10) #16
  %65 = load i32, ptr %11, align 4
  %66 = sext i32 %65 to i64
  %67 = call i64 @llvm.expect.i64(i64 %66, i64 1)
  %68 = icmp ne i64 %67, 0
  br i1 %68, label %69, label %76

69:                                               ; preds = %63
  %70 = load ptr, ptr %5, align 8
  %71 = getelementptr inbounds nuw %struct.tvbuff, ptr %70, i32 0, i32 6
  %72 = load i32, ptr %71, align 8
  %73 = load i32, ptr %6, align 4
  %74 = add i32 %72, %73
  %75 = load ptr, ptr %7, align 8
  store i32 %74, ptr %75, align 4
  br label %100

76:                                               ; preds = %63
  %77 = load i32, ptr %6, align 4
  %78 = sub i32 0, %77
  %79 = load ptr, ptr %5, align 8
  %80 = getelementptr inbounds nuw %struct.tvbuff, ptr %79, i32 0, i32 8
  %81 = load i32, ptr %80, align 8
  %82 = icmp ule i32 %78, %81
  br i1 %82, label %83, label %84

83:                                               ; preds = %76
  store i32 1, ptr %4, align 4
  br label %102

84:                                               ; preds = %76
  %85 = load ptr, ptr %5, align 8
  %86 = getelementptr inbounds nuw %struct.tvbuff, ptr %85, i32 0, i32 3
  %87 = load i32, ptr %86, align 4
  %88 = and i32 %87, 1
  %89 = icmp ne i32 %88, 0
  br i1 %89, label %90, label %91

90:                                               ; preds = %84
  store i32 4, ptr %4, align 4
  br label %102

91:                                               ; preds = %84
  %92 = load i32, ptr %6, align 4
  %93 = sub i32 0, %92
  %94 = load ptr, ptr %5, align 8
  %95 = getelementptr inbounds nuw %struct.tvbuff, ptr %94, i32 0, i32 7
  %96 = load i32, ptr %95, align 4
  %97 = icmp ule i32 %93, %96
  br i1 %97, label %98, label %99

98:                                               ; preds = %91
  store i32 2, ptr %4, align 4
  br label %102

99:                                               ; preds = %91
  store i32 3, ptr %4, align 4
  br label %102

100:                                              ; preds = %69
  br label %101

101:                                              ; preds = %100, %53
  store i32 0, ptr %4, align 4
  br label %102

102:                                              ; preds = %101, %99, %98, %90, %83, %52, %51, %44, %37
  %103 = load i32, ptr %4, align 4
  ret i32 %103
}

; Function Attrs: inlinehint null_pointer_is_valid sspstrong uwtable
define internal i32 @compute_offset_and_remaining(ptr noundef %0, i32 noundef %1, ptr noundef %2, ptr noundef %3) #5 {
  %5 = alloca ptr, align 8
  %6 = alloca i32, align 4
  %7 = alloca ptr, align 8
  %8 = alloca ptr, align 8
  %9 = alloca i32, align 4
  store ptr %0, ptr %5, align 8
  store i32 %1, ptr %6, align 4
  store ptr %2, ptr %7, align 8
  store ptr %3, ptr %8, align 8
  call void @llvm.lifetime.start.p0(i64 4, ptr %9) #16
  %10 = load ptr, ptr %5, align 8
  %11 = load i32, ptr %6, align 4
  %12 = load ptr, ptr %7, align 8
  %13 = call i32 @compute_offset(ptr noundef %10, i32 noundef %11, ptr noundef %12)
  store i32 %13, ptr %9, align 4
  %14 = load i32, ptr %9, align 4
  %15 = icmp ne i32 %14, 0
  br i1 %15, label %24, label %16

16:                                               ; preds = %4
  %17 = load ptr, ptr %5, align 8
  %18 = getelementptr inbounds nuw %struct.tvbuff, ptr %17, i32 0, i32 6
  %19 = load i32, ptr %18, align 8
  %20 = load ptr, ptr %7, align 8
  %21 = load i32, ptr %20, align 4
  %22 = sub i32 %19, %21
  %23 = load ptr, ptr %8, align 8
  store i32 %22, ptr %23, align 4
  br label %24

24:                                               ; preds = %16, %4
  %25 = load i32, ptr %9, align 4
  call void @llvm.lifetime.end.p0(i64 4, ptr %9) #16
  ret i32 %25
}

; Function Attrs: null_pointer_is_valid sspstrong uwtable
define i32 @tvb_find_uint16(ptr noundef %0, i32 noundef %1, i32 noundef %2, i16 noundef zeroext %3) #0 {
  %5 = alloca i32, align 4
  %6 = alloca ptr, align 8
  %7 = alloca i32, align 4
  %8 = alloca i32, align 4
  %9 = alloca i16, align 2
  %10 = alloca i32, align 4
  %11 = alloca i32, align 4
  %12 = alloca i32, align 4
  %13 = alloca i8, align 1
  %14 = alloca i8, align 1
  %15 = alloca i32, align 4
  %16 = alloca i32, align 4
  %17 = alloca i32, align 4
  %18 = alloca i32, align 4
  %19 = alloca i32, align 4
  store ptr %0, ptr %6, align 8
  store i32 %1, ptr %7, align 4
  store i32 %2, ptr %8, align 4
  store i16 %3, ptr %9, align 2
  call void @llvm.lifetime.start.p0(i64 4, ptr %10) #16
  store i32 0, ptr %10, align 4
  call void @llvm.lifetime.start.p0(i64 4, ptr %11) #16
  store i32 0, ptr %11, align 4
  call void @llvm.lifetime.start.p0(i64 4, ptr %12) #16
  %20 = load ptr, ptr %6, align 8
  %21 = load i32, ptr %7, align 4
  %22 = call i32 @compute_offset_and_remaining(ptr noundef %20, i32 noundef %21, ptr noundef %10, ptr noundef %11)
  store i32 %22, ptr %12, align 4
  %23 = load i32, ptr %12, align 4
  %24 = icmp ne i32 %23, 0
  br i1 %24, label %25, label %28

25:                                               ; preds = %4
  %26 = load i32, ptr %12, align 4
  %27 = sext i32 %26 to i64
  call void @except_throw(i64 noundef 1, i64 noundef %27, ptr noundef null) #18
  unreachable

28:                                               ; preds = %4
  %29 = load i32, ptr %8, align 4
  %30 = icmp sge i32 %29, 0
  br i1 %30, label %31, label %37

31:                                               ; preds = %28
  %32 = load i32, ptr %11, align 4
  %33 = load i32, ptr %8, align 4
  %34 = icmp ugt i32 %32, %33
  br i1 %34, label %35, label %37

35:                                               ; preds = %31
  %36 = load i32, ptr %8, align 4
  store i32 %36, ptr %11, align 4
  br label %37

37:                                               ; preds = %35, %31, %28
  call void @llvm.lifetime.start.p0(i64 1, ptr %13) #16
  %38 = load i16, ptr %9, align 2
  %39 = zext i16 %38 to i32
  %40 = and i32 %39, 65280
  %41 = ashr i32 %40, 8
  %42 = trunc i32 %41 to i8
  store i8 %42, ptr %13, align 1
  call void @llvm.lifetime.start.p0(i64 1, ptr %14) #16
  %43 = load i16, ptr %9, align 2
  %44 = zext i16 %43 to i32
  %45 = and i32 %44, 255
  %46 = ashr i32 %45, 0
  %47 = trunc i32 %46 to i8
  store i8 %47, ptr %14, align 1
  call void @llvm.lifetime.start.p0(i64 4, ptr %15) #16
  store i32 0, ptr %15, align 4
  call void @llvm.lifetime.start.p0(i64 4, ptr %16) #16
  %48 = load i32, ptr %10, align 4
  store i32 %48, ptr %16, align 4
  br label %49

49:                                               ; preds = %92, %37
  call void @llvm.lifetime.start.p0(i64 4, ptr %17) #16
  %50 = load ptr, ptr %6, align 8
  %51 = load i32, ptr %16, align 4
  %52 = load i32, ptr %11, align 4
  %53 = load i32, ptr %15, align 4
  %54 = sub i32 %52, %53
  %55 = load i8, ptr %13, align 1
  %56 = call i32 @tvb_find_uint8(ptr noundef %50, i32 noundef %51, i32 noundef %54, i8 noundef zeroext %55)
  store i32 %56, ptr %17, align 4
  call void @llvm.lifetime.start.p0(i64 4, ptr %18) #16
  store i32 -1, ptr %18, align 4
  %57 = load i32, ptr %17, align 4
  %58 = icmp eq i32 %57, -1
  br i1 %58, label %59, label %60

59:                                               ; preds = %49
  store i32 -1, ptr %5, align 4
  store i32 1, ptr %19, align 4
  br label %89

60:                                               ; preds = %49
  %61 = load i32, ptr %17, align 4
  %62 = load i32, ptr %10, align 4
  %63 = sub i32 %61, %62
  %64 = add i32 %63, 1
  store i32 %64, ptr %15, align 4
  %65 = load i32, ptr %15, align 4
  %66 = load i32, ptr %11, align 4
  %67 = icmp uge i32 %65, %66
  br i1 %67, label %68, label %69

68:                                               ; preds = %60
  store i32 -1, ptr %5, align 4
  store i32 1, ptr %19, align 4
  br label %89

69:                                               ; preds = %60
  %70 = load ptr, ptr %6, align 8
  %71 = load i32, ptr %17, align 4
  %72 = add i32 %71, 1
  %73 = load i8, ptr %14, align 1
  %74 = call i32 @tvb_find_uint8(ptr noundef %70, i32 noundef %72, i32 noundef 1, i8 noundef zeroext %73)
  store i32 %74, ptr %18, align 4
  %75 = load i32, ptr %15, align 4
  %76 = add i32 %75, 1
  store i32 %76, ptr %15, align 4
  %77 = load i32, ptr %18, align 4
  %78 = icmp ne i32 %77, -1
  br i1 %78, label %79, label %86

79:                                               ; preds = %69
  %80 = load i32, ptr %15, align 4
  %81 = load i32, ptr %11, align 4
  %82 = icmp ugt i32 %80, %81
  br i1 %82, label %83, label %84

83:                                               ; preds = %79
  store i32 -1, ptr %5, align 4
  store i32 1, ptr %19, align 4
  br label %89

84:                                               ; preds = %79
  %85 = load i32, ptr %17, align 4
  store i32 %85, ptr %5, align 4
  store i32 1, ptr %19, align 4
  br label %89

86:                                               ; preds = %69
  %87 = load i32, ptr %17, align 4
  %88 = add i32 %87, 1
  store i32 %88, ptr %16, align 4
  store i32 0, ptr %19, align 4
  br label %89

89:                                               ; preds = %86, %84, %83, %68, %59
  call void @llvm.lifetime.end.p0(i64 4, ptr %18) #16
  call void @llvm.lifetime.end.p0(i64 4, ptr %17) #16
  %90 = load i32, ptr %19, align 4
  switch i32 %90, label %97 [
    i32 0, label %91
  ]

91:                                               ; preds = %89
  br label %92

92:                                               ; preds = %91
  %93 = load i32, ptr %15, align 4
  %94 = load i32, ptr %11, align 4
  %95 = icmp ult i32 %93, %94
  br i1 %95, label %49, label %96, !llvm.loop !22

96:                                               ; preds = %92
  store i32 -1, ptr %5, align 4
  store i32 1, ptr %19, align 4
  br label %97

97:                                               ; preds = %96, %89
  call void @llvm.lifetime.end.p0(i64 4, ptr %16) #16
  call void @llvm.lifetime.end.p0(i64 4, ptr %15) #16
  call void @llvm.lifetime.end.p0(i64 1, ptr %14) #16
  call void @llvm.lifetime.end.p0(i64 1, ptr %13) #16
  call void @llvm.lifetime.end.p0(i64 4, ptr %12) #16
  call void @llvm.lifetime.end.p0(i64 4, ptr %11) #16
  call void @llvm.lifetime.end.p0(i64 4, ptr %10) #16
  %98 = load i32, ptr %5, align 4
  ret i32 %98
}