; Function Attrs: null_pointer_is_valid sspstrong uwtable
define i32 @tvb_find_uint16(ptr noundef %0, i32 noundef %1, i32 noundef %2, i16 noundef zeroext %3) local_unnamed_addr #0 {
  %5 = icmp sgt i32 %1, -1
  br i1 %5, label %6, label %19

6:                                                ; preds = %4
  %7 = getelementptr inbounds nuw i8, ptr %0, i64 40
  %8 = load i32, ptr %7, align 8
  %.not32.i.i = icmp ugt i32 %1, %8
  br i1 %.not32.i.i, label %9, label %36, !prof !11

9:                                                ; preds = %6
  %10 = getelementptr inbounds nuw i8, ptr %0, i64 48
  %11 = load i32, ptr %10, align 8
  %.not34.i.i = icmp ugt i32 %1, %11
  br i1 %.not34.i.i, label %12, label %35

12:                                               ; preds = %9
  %13 = getelementptr inbounds nuw i8, ptr %0, i64 20
  %14 = load i32, ptr %13, align 4
  %15 = and i32 %14, 1
  %.not35.i.i = icmp eq i32 %15, 0
  br i1 %.not35.i.i, label %16, label %35

16:                                               ; preds = %12
  %17 = getelementptr inbounds nuw i8, ptr %0, i64 44
  %18 = load i32, ptr %17, align 4
  %.not36.i.i = icmp ugt i32 %1, %18
  br label %.sink.split

19:                                               ; preds = %4
  %20 = sub i32 0, %1
  %21 = getelementptr inbounds nuw i8, ptr %0, i64 40
  %22 = load i32, ptr %21, align 8
  %.not.i.i = icmp ult i32 %22, %20
  br i1 %.not.i.i, label %25, label %23, !prof !11

23:                                               ; preds = %19
  %24 = add i32 %22, %1
  br label %36

25:                                               ; preds = %19
  %26 = getelementptr inbounds nuw i8, ptr %0, i64 48
  %27 = load i32, ptr %26, align 8
  %.not29.i.i = icmp ult i32 %27, %20
  br i1 %.not29.i.i, label %28, label %35

28:                                               ; preds = %25
  %29 = getelementptr inbounds nuw i8, ptr %0, i64 20
  %30 = load i32, ptr %29, align 4
  %31 = and i32 %30, 1
  %.not30.i.i = icmp eq i32 %31, 0
  br i1 %.not30.i.i, label %32, label %35

32:                                               ; preds = %28
  %33 = getelementptr inbounds nuw i8, ptr %0, i64 44
  %34 = load i32, ptr %33, align 4
  %.not31.i.i = icmp ult i32 %34, %20
  br label %.sink.split

.sink.split:                                      ; preds = %16, %32
  %.not31.i.i.sink = phi i1 [ %.not31.i.i, %32 ], [ %.not36.i.i, %16 ]
  %.37.i.i = select i1 %.not31.i.i.sink, i64 3, i64 2
  br label %35

35:                                               ; preds = %.sink.split, %28, %25, %12, %9
  %.0.i9.i.ph = phi i64 [ 1, %9 ], [ 4, %12 ], [ 1, %25 ], [ 4, %28 ], [ %.37.i.i, %.sink.split ]
  tail call void @except_throw(i64 noundef 1, i64 noundef %.0.i9.i.ph, ptr noundef null) #18
  unreachable

36:                                               ; preds = %23, %6
  %37 = phi i32 [ %22, %23 ], [ %8, %6 ]
  %storemerge.i.i = phi i32 [ %24, %23 ], [ %1, %6 ]
  %38 = sub i32 %37, %storemerge.i.i
  %39 = tail call i32 @llvm.umin.i32(i32 %38, i32 %2)
  %40 = icmp slt i32 %2, 0
  %spec.select = select i1 %40, i32 %38, i32 %39
  %41 = lshr i16 %3, 8
  %42 = trunc nuw i16 %41 to i8
  %43 = trunc i16 %3 to i8
  br label %44

44:                                               ; preds = %57, %36
  %.029 = phi i32 [ 0, %36 ], [ %54, %57 ]
  %.027 = phi i32 [ %storemerge.i.i, %36 ], [ %52, %57 ]
  %45 = sub i32 %spec.select, %.029
  %46 = tail call i32 @tvb_find_uint8(ptr noundef %0, i32 noundef %.027, i32 noundef %45, i8 noundef zeroext %42)
  %47 = icmp eq i32 %46, -1
  br i1 %47, label %.thread, label %48

48:                                               ; preds = %44
  %49 = sub i32 %46, %storemerge.i.i
  %50 = add i32 %49, 1
  %.not38 = icmp ult i32 %50, %spec.select
  br i1 %.not38, label %51, label %.thread

51:                                               ; preds = %48
  %52 = add nuw i32 %46, 1
  %53 = tail call i32 @tvb_find_uint8(ptr noundef %0, i32 noundef %52, i32 noundef 1, i8 noundef zeroext %43)
  %54 = add i32 %49, 2
  %.not39 = icmp eq i32 %53, -1
  br i1 %.not39, label %57, label %55

55:                                               ; preds = %51
  %56 = icmp ugt i32 %54, %spec.select
  %. = select i1 %56, i32 -1, i32 %46
  br label %.thread

57:                                               ; preds = %51
  %58 = icmp ult i32 %54, %spec.select
  br i1 %58, label %44, label %.thread, !llvm.loop !24

.thread:                                          ; preds = %48, %44, %57, %55
  %.2 = phi i32 [ %., %55 ], [ -1, %57 ], [ -1, %44 ], [ -1, %48 ]
  ret i32 %.2
}